target datalayout = "e-m:e-p270:32:32-p271:32:32-p272:64:64-i64:64-i128:128-f80:128-n8:16:32:64-S128"
target triple = "x86_64-unknown-linux-gnu"

%struct.emitter_s = type { i32, ptr, ptr, i32, i8, i8 }

@.str.28 = private unnamed_addr constant [3 x i8] c"%s\00", align 1
@.str.31 = private unnamed_addr constant [2 x i8] c" \00", align 1
@.str.33 = private unnamed_addr constant [2 x i8] c"\0A\00", align 1
@.str.34 = private unnamed_addr constant [2 x i8] c"\09\00", align 1
@.str.225 = private unnamed_addr constant [5 x i8] c"%s: \00", align 1
@.str.226 = private unnamed_addr constant [7 x i8] c" (%s: \00", align 1
@.str.227 = private unnamed_addr constant [2 x i8] c")\00", align 1

; Function Attrs: nounwind uwtable
define internal void @emitter_indent(ptr noundef %emitter) #0 {
entry:
  %emitter.addr = alloca ptr, align 8
  %amount = alloca i32, align 4
  %indent_str = alloca ptr, align 8
  %i = alloca i32, align 4
  store ptr %emitter, ptr %emitter.addr, align 8
  %0 = load ptr, ptr %emitter.addr, align 8
  %nesting_depth = getelementptr inbounds %struct.emitter_s, ptr %0, i32 0, i32 3
  %1 = load i32, ptr %nesting_depth, align 8
  store i32 %1, ptr %amount, align 4
  br label %do.body

do.body:                                          ; preds = %entry
  br label %do.end

do.end:                                           ; preds = %do.body
  %2 = load ptr, ptr %emitter.addr, align 8
  %output = getelementptr inbounds %struct.emitter_s, ptr %2, i32 0, i32 0
  %3 = load i32, ptr %output, align 8
  %cmp = icmp eq i32 %3, 0
  br i1 %cmp, label %if.then, label %if.else

if.then:                                          ; preds = %do.end
  store ptr @.str.34, ptr %indent_str, align 8
  br label %if.end

if.else:                                          ; preds = %do.end
  %4 = load i32, ptr %amount, align 4
  %mul = mul nsw i32 %4, 2
  store i32 %mul, ptr %amount, align 4
  store ptr @.str.31, ptr %indent_str, align 8
  br label %if.end

if.end:                                           ; preds = %if.else, %if.then
  store i32 0, ptr %i, align 4
  br label %for.cond

for.cond:                                         ; preds = %for.inc, %if.end
  %5 = load i32, ptr %i, align 4
  %6 = load i32, ptr %amount, align 4
  %cmp1 = icmp slt i32 %5, %6
  br i1 %cmp1, label %for.body, label %for.end

for.body:                                         ; preds = %for.cond
  %7 = load ptr, ptr %emitter.addr, align 8
  %8 = load ptr, ptr %indent_str, align 8
  call void (ptr, ptr, ...) @emitter_printf(ptr noundef %7, ptr noundef @.str.28, ptr noundef %8)
  br label %for.inc

for.inc:                                          ; preds = %for.body
  %9 = load i32, ptr %i, align 4
  %inc = add nsw i32 %9, 1
  store i32 %inc, ptr %i, align 4
  br label %for.cond, !llvm.loop !12

for.end:                                          ; preds = %for.cond
  ret void
}

; Function Attrs: nounwind uwtable
define internal void @emitter_table_kv_note(ptr noundef %emitter, ptr noundef %table_key, i32 noundef %value_type, ptr noundef %value, ptr noundef %table_note_key, i32 noundef %table_note_value_type, ptr noundef %table_note_value) #0 {
entry:
  %emitter.addr = alloca ptr, align 8
  %table_key.addr = alloca ptr, align 8
  %value_type.addr = alloca i32, align 4
  %value.addr = alloca ptr, align 8
  %table_note_key.addr = alloca ptr, align 8
  %table_note_value_type.addr = alloca i32, align 4
  %table_note_value.addr = alloca ptr, align 8
  store ptr %emitter, ptr %emitter.addr, align 8
  store ptr %table_key, ptr %table_key.addr, align 8
  store i32 %value_type, ptr %value_type.addr, align 4
  store ptr %value, ptr %value.addr, align 8
  store ptr %table_note_key, ptr %table_note_key.addr, align 8
  store i32 %table_note_value_type, ptr %table_note_value_type.addr, align 4
  store ptr %table_note_value, ptr %table_note_value.addr, align 8
  %0 = load ptr, ptr %emitter.addr, align 8
  %output = getelementptr inbounds %struct.emitter_s, ptr %0, i32 0, i32 0
  %1 = load i32, ptr %output, align 8
  %cmp = icmp eq i32 %1, 2
  br i1 %cmp, label %if.then, label %if.end3

if.then:                                          ; preds = %entry
  %2 = load ptr, ptr %emitter.addr, align 8
  call void @emitter_indent(ptr noundef %2)
  %3 = load ptr, ptr %emitter.addr, align 8
  %4 = load ptr, ptr %table_key.addr, align 8
  call void (ptr, ptr, ...) @emitter_printf(ptr noundef %3, ptr noundef @.str.225, ptr noundef %4)
  %5 = load ptr, ptr %emitter.addr, align 8
  %6 = load i32, ptr %value_type.addr, align 4
  %7 = load ptr, ptr %value.addr, align 8
  call void @emitter_print_value(ptr noundef %5, i32 noundef 2, i32 noundef -1, i32 noundef %6, ptr noundef %7)
  %8 = load ptr, ptr %table_note_key.addr, align 8
  %cmp1 = icmp ne ptr %8, null
  br i1 %cmp1, label %if.then2, label %if.end

if.then2:                                         ; preds = %if.then
  %9 = load ptr, ptr %emitter.addr, align 8
  %10 = load ptr, ptr %table_note_key.addr, align 8
  call void (ptr, ptr, ...) @emitter_printf(ptr noundef %9, ptr noundef @.str.226, ptr noundef %10)
  %11 = load ptr, ptr %emitter.addr, align 8
  %12 = load i32, ptr %table_note_value_type.addr, align 4
  %13 = load ptr, ptr %table_note_value.addr, align 8
  call void @emitter_print_value(ptr noundef %11, i32 noundef 2, i32 noundef -1, i32 noundef %12, ptr noundef %13)
  %14 = load ptr, ptr %emitter.addr, align 8
  call void (ptr, ptr, ...) @emitter_printf(ptr noundef %14, ptr noundef @.str.227)
  br label %if.end

if.end:                                           ; preds = %if.then2, %if.then
  %15 = load ptr, ptr %emitter.addr, align 8
  call void (ptr, ptr, ...) @emitter_printf(ptr noundef %15, ptr noundef @.str.33)
  br label %if.end3

if.end3:                                          ; preds = %if.end, %entry
  %16 = load ptr, ptr %emitter.addr, align 8
  %item_at_depth = getelementptr inbounds %struct.emitter_s, ptr %16, i32 0, i32 4
  store i8 1, ptr %item_at_depth, align 4
  ret void
}

; Function Attrs: nounwind uwtable
define internal zeroext i1 @emitter_outputs_json(ptr noundef %emitter) #0 {
entry:
  %emitter.addr = alloca ptr, align 8
  store ptr %emitter, ptr %emitter.addr, align 8
  %0 = load ptr, ptr %emitter.addr, align 8
  %output = getelementptr inbounds %struct.emitter_s, ptr %0, i32 0, i32 0
  %1 = load i32, ptr %output, align 8
  %cmp = icmp eq i32 %1, 0
  br i1 %cmp, label %lor.end, label %lor.rhs

lor.rhs:                                          ; preds = %entry
  %2 = load ptr, ptr %emitter.addr, align 8
  %output1 = getelementptr inbounds %struct.emitter_s, ptr %2, i32 0, i32 0
  %3 = load i32, ptr %output1, align 8
  %cmp2 = icmp eq i32 %3, 1
  br label %lor.end

lor.end:                                          ; preds = %lor.rhs, %entry
  %4 = phi i1 [ true, %entry ], [ %cmp2, %lor.rhs ]
  ret i1 %4
}

; Function Attrs: nounwind uwtable
define internal void @emitter_kv_note(ptr noundef %emitter, ptr noundef %json_key, ptr noundef %table_key, i32 noundef %value_type, ptr noundef %value, ptr noundef %table_note_key, i32 noundef %table_note_value_type, ptr noundef %table_note_value) #0 {
entry:
  %emitter.addr = alloca ptr, align 8
  %json_key.addr = alloca ptr, align 8
  %table_key.addr = alloca ptr, align 8
  %value_type.addr = alloca i32, align 4
  %value.addr = alloca ptr, align 8
  %table_note_key.addr = alloca ptr, align 8
  %table_note_value_type.addr = alloca i32, align 4
  %table_note_value.addr = alloca ptr, align 8
  store ptr %emitter, ptr %emitter.addr, align 8
  store ptr %json_key, ptr %json_key.addr, align 8
  store ptr %table_key, ptr %table_key.addr, align 8
  store i32 %value_type, ptr %value_type.addr, align 4
  store ptr %value, ptr %value.addr, align 8
  store ptr %table_note_key, ptr %table_note_key.addr, align 8
  store i32 %table_note_value_type, ptr %table_note_value_type.addr, align 4
  store ptr %table_note_value, ptr %table_note_value.addr, align 8
  %0 = load ptr, ptr %emitter.addr, align 8
  %call = call zeroext i1 @emitter_outputs_json(ptr noundef %0)
  br i1 %call, label %if.then, label %if.else

if.then:                                          ; preds = %entry
  %1 = load ptr, ptr %emitter.addr, align 8
  %2 = load ptr, ptr %json_key.addr, align 8
  call void @emitter_json_key(ptr noundef %1, ptr noundef %2)
  %3 = load ptr, ptr %emitter.addr, align 8
  %4 = load i32, ptr %value_type.addr, align 4
  %5 = load ptr, ptr %value.addr, align 8
  call void @emitter_json_value(ptr noundef %3, i32 noundef %4, ptr noundef %5)
  br label %if.end

if.else:                                          ; preds = %entry
  %6 = load ptr, ptr %emitter.addr, align 8
  %7 = load ptr, ptr %table_key.addr, align 8
  %8 = load i32, ptr %value_type.addr, align 4
  %9 = load ptr, ptr %value.addr, align 8
  %10 = load ptr, ptr %table_note_key.addr, align 8
  %11 = load i32, ptr %table_note_value_type.addr, align 4
  %12 = load ptr, ptr %table_note_value.addr, align 8
  call void @emitter_table_kv_note(ptr noundef %6, ptr noundef %7, i32 noundef %8, ptr noundef %9, ptr noundef %10, i32 noundef %11, ptr noundef %12)
  br label %if.end

if.end:                                           ; preds = %if.else, %if.then
  %13 = load ptr, ptr %emitter.addr, align 8
  %item_at_depth = getelementptr inbounds %struct.emitter_s, ptr %13, i32 0, i32 4
  store i8 1, ptr %item_at_depth, align 4
  ret void
}