; Function Attrs: nounwind uwtable
define internal fastcc void @emitter_kv_note(ptr nocapture noundef %emitter, ptr noundef %json_key, ptr noundef %table_key, i32 noundef %value_type, ptr nocapture noundef readonly %value, ptr noundef %table_note_key, i32 noundef %table_note_value_type, ptr nocapture noundef readonly %table_note_value) unnamed_addr #0 {
entry:
  %emitter.val = load i32, ptr %emitter, align 8
  %spec.select.i = icmp ult i32 %emitter.val, 2
  br i1 %spec.select.i, label %if.then, label %if.else

if.then:                                          ; preds = %entry
  tail call fastcc void @emitter_json_key(ptr noundef nonnull %emitter, ptr noundef %json_key)
  tail call fastcc void @emitter_json_value(ptr noundef nonnull %emitter, i32 noundef %value_type, ptr noundef %value)
  br label %if.end

if.else:                                          ; preds = %entry
  %cmp.i = icmp eq i32 %emitter.val, 2
  br i1 %cmp.i, label %if.then.i, label %if.end

if.then.i:                                        ; preds = %if.else
  %nesting_depth.i.i = getelementptr inbounds i8, ptr %emitter, i64 24
  %0 = load i32, ptr %nesting_depth.i.i, align 8
  %cmp15.i.i = icmp sgt i32 %0, 0
  br i1 %cmp15.i.i, label %for.body.preheader.i.i, label %emitter_indent.exit.i

for.body.preheader.i.i:                           ; preds = %if.then.i
  %amount.0.i.i = shl nuw nsw i32 %0, 1
  br label %for.body.i.i

for.body.i.i:                                     ; preds = %for.body.i.i, %for.body.preheader.i.i
  %i.06.i.i = phi i32 [ %inc.i.i, %for.body.i.i ], [ 0, %for.body.preheader.i.i ]
  tail call void (ptr, ptr, ...) @emitter_printf(ptr noundef nonnull %emitter, ptr noundef nonnull @.str.28, ptr noundef nonnull @.str.31)
  %inc.i.i = add nuw nsw i32 %i.06.i.i, 1
  %exitcond.not.i.i = icmp eq i32 %inc.i.i, %amount.0.i.i
  br i1 %exitcond.not.i.i, label %emitter_indent.exit.i, label %for.body.i.i, !llvm.loop !7

emitter_indent.exit.i:                            ; preds = %for.body.i.i, %if.then.i
  tail call void (ptr, ptr, ...) @emitter_printf(ptr noundef nonnull %emitter, ptr noundef nonnull @.str.225, ptr noundef %table_key)
  tail call fastcc void @emitter_print_value(ptr noundef nonnull %emitter, i32 noundef 2, i32 noundef -1, i32 noundef %value_type, ptr noundef %value)
  %cmp1.not.i = icmp eq ptr %table_note_key, null
  br i1 %cmp1.not.i, label %if.end.i, label %if.then2.i

if.then2.i:                                       ; preds = %emitter_indent.exit.i
  tail call void (ptr, ptr, ...) @emitter_printf(ptr noundef nonnull %emitter, ptr noundef nonnull @.str.226, ptr noundef nonnull %table_note_key)
  tail call fastcc void @emitter_print_value(ptr noundef nonnull %emitter, i32 noundef 2, i32 noundef -1, i32 noundef %table_note_value_type, ptr noundef %table_note_value)
  tail call void (ptr, ptr, ...) @emitter_printf(ptr noundef nonnull %emitter, ptr noundef nonnull @.str.227)
  br label %if.end.i

if.end.i:                                         ; preds = %if.then2.i, %emitter_indent.exit.i
  tail call void (ptr, ptr, ...) @emitter_printf(ptr noundef nonnull %emitter, ptr noundef nonnull @.str.33)
  br label %if.end

if.end:                                           ; preds = %if.end.i, %if.else, %if.then
  %item_at_depth = getelementptr inbounds i8, ptr %emitter, i64 28
  store i8 1, ptr %item_at_depth, align 4
  ret void
}